target datalayout = "e-m:e-p270:32:32-p271:32:32-p272:64:64-i64:64-i128:128-f80:128-n8:16:32:64-S128"
target triple = "x86_64-pc-linux-gnu"

%struct.Halfedge = type { ptr, ptr, ptr, i32, i8, ptr, double, ptr }
%struct.Edge = type { double, double, double, [2 x ptr], [2 x ptr] }

@bottomsite = external global ptr, align 8

; Function Attrs: nounwind uwtable
define ptr @rightreg(ptr noundef %0) #0 {
  %2 = alloca ptr, align 8
  %3 = alloca ptr, align 8
  store ptr %0, ptr %3, align 8, !tbaa !10
  %4 = load ptr, ptr %3, align 8, !tbaa !10
  %5 = getelementptr inbounds nuw %struct.Halfedge, ptr %4, i32 0, i32 2
  %6 = load ptr, ptr %5, align 8, !tbaa !27
  %7 = icmp eq ptr %6, null
  br i1 %7, label %8, label %10

8:                                                ; preds = %1
  %9 = load ptr, ptr @bottomsite, align 8, !tbaa !32
  store ptr %9, ptr %2, align 8
  br label %32

10:                                               ; preds = %1
  %11 = load ptr, ptr %3, align 8, !tbaa !10
  %12 = getelementptr inbounds nuw %struct.Halfedge, ptr %11, i32 0, i32 4
  %13 = load i8, ptr %12, align 4, !tbaa !28
  %14 = sext i8 %13 to i32
  %15 = icmp eq i32 %14, 0
  br i1 %15, label %16, label %23

16:                                               ; preds = %10
  %17 = load ptr, ptr %3, align 8, !tbaa !10
  %18 = getelementptr inbounds nuw %struct.Halfedge, ptr %17, i32 0, i32 2
  %19 = load ptr, ptr %18, align 8, !tbaa !27
  %20 = getelementptr inbounds nuw %struct.Edge, ptr %19, i32 0, i32 4
  %21 = getelementptr inbounds [2 x ptr], ptr %20, i64 0, i64 1
  %22 = load ptr, ptr %21, align 8, !tbaa !32
  br label %30

23:                                               ; preds = %10
  %24 = load ptr, ptr %3, align 8, !tbaa !10
  %25 = getelementptr inbounds nuw %struct.Halfedge, ptr %24, i32 0, i32 2
  %26 = load ptr, ptr %25, align 8, !tbaa !27
  %27 = getelementptr inbounds nuw %struct.Edge, ptr %26, i32 0, i32 4
  %28 = getelementptr inbounds [2 x ptr], ptr %27, i64 0, i64 0
  %29 = load ptr, ptr %28, align 8, !tbaa !32
  br label %30

30:                                               ; preds = %23, %16
  %31 = phi ptr [ %22, %16 ], [ %29, %23 ]
  store ptr %31, ptr %2, align 8
  br label %32

32:                                               ; preds = %30, %8
  %33 = load ptr, ptr %2, align 8
  ret ptr %33
}