; Function Attrs: mustprogress nofree norecurse nosync nounwind willreturn memory(read, inaccessiblemem: none) uwtable
define ptr @rightreg(ptr noundef readonly captures(none) %0) local_unnamed_addr #4 {
  %2 = getelementptr inbounds nuw i8, ptr %0, i64 16
  %3 = load ptr, ptr %2, align 8, !tbaa !14
  %4 = icmp eq ptr %3, null
  br i1 %4, label %9, label %5

5:                                                ; preds = %1
  %6 = getelementptr inbounds nuw i8, ptr %0, i64 28
  %7 = load i8, ptr %6, align 4, !tbaa !19
  %8 = icmp eq i8 %7, 0
  %.in.v = select i1 %8, i64 48, i64 40
  %.in = getelementptr inbounds nuw i8, ptr %3, i64 %.in.v
  br label %9

9:                                                ; preds = %1, %5
  %.0.in = phi ptr [ %.in, %5 ], [ @bottomsite, %1 ]
  %.0 = load ptr, ptr %.0.in, align 8, !tbaa !25
  ret ptr %.0
}